; Function Attrs: nounwind uwtable
define dso_local void @jobacctinfo_destroy(ptr noundef %0) #0 {
  %2 = alloca ptr, align 8
  call void @llvm.lifetime.start.p0(i64 8, ptr nonnull %2) #10
  store ptr %0, ptr %2, align 8
  tail call fastcc void @_free_tres_usage(ptr noundef %0)
  call void @slurm_xfree(ptr noundef nonnull %2) #10
  call void @llvm.lifetime.end.p0(i64 8, ptr nonnull %2) #10
  ret void
}